; Function Attrs: mustprogress nounwind uwtable
define void @_ZN8facebook5velox6memory14MemoryPoolImpl20decrementReservationEm(ptr noundef nonnull align 8 dereferenceable(480) %this, i64 noundef %size) local_unnamed_addr #5 align 2 personality ptr @__gxx_personality_v0 {
entry:
  %cmp.not = icmp eq i64 %size, 0
  br i1 %cmp.not, label %if.then, label %if.end

if.then:                                          ; preds = %entry
  tail call void @llvm.trap()
  unreachable

if.end:                                           ; preds = %entry
  %parent_ = getelementptr inbounds i8, ptr %this, i64 64
  %0 = load ptr, ptr %parent_, align 8
  %cmp.i.i.not = icmp eq ptr %0, null
  br i1 %cmp.i.i.not, label %if.end5, label %if.then2

if.then2:                                         ; preds = %if.end
  tail call void @_ZN8facebook5velox6memory14MemoryPoolImpl20decrementReservationEm(ptr noundef nonnull align 8 dereferenceable(480) %0, i64 noundef %size) #26
  br label %if.end5

if.end5:                                          ; preds = %if.then2, %if.end
  %mutex_ = getelementptr inbounds i8, ptr %this, i64 248
  %call1.i.i.i = tail call noundef i32 @pthread_mutex_lock(ptr noundef nonnull %mutex_) #26
  %tobool.not.i.i = icmp eq i32 %call1.i.i.i, 0
  br i1 %tobool.not.i.i, label %invoke.cont6, label %if.then.i.i

if.then.i.i:                                      ; preds = %if.end5
  invoke void @_ZSt20__throw_system_errori(i32 noundef %call1.i.i.i) #29
          to label %.noexc unwind label %terminate.lpad

.noexc:                                           ; preds = %if.then.i.i
  unreachable

invoke.cont6:                                     ; preds = %if.end5
  %reservationBytes_ = getelementptr inbounds i8, ptr %this, i64 304
  %1 = load i64, ptr %reservationBytes_, align 8
  %sub = sub i64 %1, %size
  store i64 %sub, ptr %reservationBytes_, align 8
  %usedReservationBytes_.i = getelementptr inbounds i8, ptr %this, i64 312
  %2 = load i64, ptr %usedReservationBytes_.i, align 8
  %cmp.i = icmp slt i64 %sub, %2
  %minReservationBytes_.i = getelementptr inbounds i8, ptr %this, i64 320
  %3 = load i64, ptr %minReservationBytes_.i, align 8
  %cmp3.i = icmp slt i64 %sub, %3
  %or.cond = select i1 %cmp.i, i1 true, i1 %cmp3.i
  %cmp5.i = icmp slt i64 %2, 0
  %or.cond3 = or i1 %cmp5.i, %or.cond
  br i1 %or.cond3, label %if.then.i, label %invoke.cont7

if.then.i:                                        ; preds = %invoke.cont6
  tail call void @llvm.trap()
  unreachable

invoke.cont7:                                     ; preds = %invoke.cont6
  %call1.i.i.i4 = tail call noundef i32 @pthread_mutex_unlock(ptr noundef nonnull %mutex_) #26
  ret void

terminate.lpad:                                   ; preds = %if.then.i.i
  %4 = landingpad { ptr, i32 }
          catch ptr null
  %5 = extractvalue { ptr, i32 } %4, 0
  tail call void @__clang_call_terminate(ptr %5) #28
  unreachable
}